target datalayout = "e-m:e-p270:32:32-p271:32:32-p272:64:64-i64:64-i128:128-f80:128-n8:16:32:64-S128"
target triple = "x86_64-pc-linux-gnu"

%struct.bio_st = type { ptr, ptr, ptr, i32, i32, i32, i32, i32, i32, ptr, ptr, i64, i64 }

; Function Attrs: nounwind uwtable
define internal i32 @asn1_bio_read(ptr noundef %0, ptr noundef %1, i32 noundef %2) #0 {
  %4 = alloca i32, align 4
  %5 = alloca ptr, align 8
  %6 = alloca ptr, align 8
  %7 = alloca i32, align 4
  store ptr %0, ptr %5, align 8, !tbaa !6
  store ptr %1, ptr %6, align 8, !tbaa !17
  store i32 %2, ptr %7, align 4, !tbaa !12
  %8 = load ptr, ptr %5, align 8, !tbaa !6
  %9 = getelementptr inbounds nuw %struct.bio_st, ptr %8, i32 0, i32 10
  %10 = load ptr, ptr %9, align 8, !tbaa !19
  %11 = icmp ne ptr %10, null
  br i1 %11, label %13, label %12

12:                                               ; preds = %3
  store i32 0, ptr %4, align 4
  br label %20

13:                                               ; preds = %3
  %14 = load ptr, ptr %5, align 8, !tbaa !6
  %15 = getelementptr inbounds nuw %struct.bio_st, ptr %14, i32 0, i32 10
  %16 = load ptr, ptr %15, align 8, !tbaa !19
  %17 = load ptr, ptr %6, align 8, !tbaa !17
  %18 = load i32, ptr %7, align 4, !tbaa !12
  %19 = call i32 @BIO_read(ptr noundef %16, ptr noundef %17, i32 noundef %18)
  store i32 %19, ptr %4, align 4
  br label %20

20:                                               ; preds = %13, %12
  %21 = load i32, ptr %4, align 4
  ret i32 %21
}